target datalayout = "e-m:e-p270:32:32-p271:32:32-p272:64:64-i64:64-i128:128-f80:128-n8:16:32:64-S128"
target triple = "x86_64-pc-linux-gnu"

@__func__.reconfig = private unnamed_addr constant [9 x i8] c"reconfig\00", align 1

; Function Attrs: nounwind uwtable
define dso_local ptr @reconfig(ptr noundef %0) #0 {
  %2 = alloca ptr, align 8
  store ptr %0, ptr %2, align 8
  call void @conmgr_quiesce(ptr noundef @__func__.reconfig)
  %3 = call i32 @read_slurmdbd_conf()
  %4 = call i32 @assoc_mgr_set_missing_uids()
  %5 = call i32 @acct_storage_g_reconfig(ptr noundef null, i1 noundef zeroext false)
  call void @_update_logging(i1 noundef zeroext false)
  call void @conmgr_unquiesce(ptr noundef @__func__.reconfig)
  ret ptr null
}