; Function Attrs: nounwind uwtable
define dso_local noalias noundef ptr @reconfig(ptr readnone captures(none) %0) #0 {
  tail call void @conmgr_quiesce(ptr noundef nonnull @__func__.reconfig) #14
  %2 = tail call i32 @read_slurmdbd_conf() #14
  %3 = tail call i32 @assoc_mgr_set_missing_uids() #14
  %4 = tail call i32 @acct_storage_g_reconfig(ptr noundef null, i1 noundef zeroext false) #14
  tail call fastcc void @_update_logging(i1 noundef zeroext false)
  tail call void @conmgr_unquiesce(ptr noundef nonnull @__func__.reconfig) #14
  ret ptr null
}